target datalayout = "e-m:e-p270:32:32-p271:32:32-p272:64:64-i64:64-i128:128-f80:128-n8:16:32:64-S128"
target triple = "x86_64-pc-linux-gnu"

; Function Attrs: inlinehint nounwind uwtable
define internal float @lerpf(float noundef %0, float noundef %1, float noundef %2) #10 {
  %4 = alloca float, align 4
  %5 = alloca float, align 4
  %6 = alloca float, align 4
  store float %0, ptr %4, align 4, !tbaa !67
  store float %1, ptr %5, align 4, !tbaa !67
  store float %2, ptr %6, align 4, !tbaa !67
  %7 = load float, ptr %4, align 4, !tbaa !67
  %8 = load float, ptr %5, align 4, !tbaa !67
  %9 = load float, ptr %4, align 4, !tbaa !67
  %10 = fsub nsz float %8, %9
  %11 = load float, ptr %6, align 4, !tbaa !67
  %12 = call nsz float @llvm.fmuladd.f32(float %10, float %11, float %7)
  ret float %12
}

; Function Attrs: nounwind uwtable
define internal void @pseudocolor_filter_10(i32 noundef %0, i32 noundef %1, i32 noundef %2, ptr noundef %3, ptr noundef %4, ptr noundef %5, i64 noundef %6, i64 noundef %7, i64 noundef %8, ptr noundef %9, float noundef %10) #1 {
  %12 = alloca i32, align 4
  %13 = alloca i32, align 4
  %14 = alloca i32, align 4
  %15 = alloca ptr, align 8
  %16 = alloca ptr, align 8
  %17 = alloca ptr, align 8
  %18 = alloca i64, align 8
  %19 = alloca i64, align 8
  %20 = alloca i64, align 8
  %21 = alloca ptr, align 8
  %22 = alloca float, align 4
  %23 = alloca i32, align 4
  %24 = alloca i32, align 4
  %25 = alloca i32, align 4
  store i32 %0, ptr %12, align 4, !tbaa !24
  store i32 %1, ptr %13, align 4, !tbaa !24
  store i32 %2, ptr %14, align 4, !tbaa !24
  store ptr %3, ptr %15, align 8, !tbaa !29
  store ptr %4, ptr %16, align 8, !tbaa !29
  store ptr %5, ptr %17, align 8, !tbaa !29
  store i64 %6, ptr %18, align 8, !tbaa !91
  store i64 %7, ptr %19, align 8, !tbaa !91
  store i64 %8, ptr %20, align 8, !tbaa !91
  store ptr %9, ptr %21, align 8, !tbaa !96
  store float %10, ptr %22, align 4, !tbaa !67
  call void @llvm.lifetime.start.p0(i64 4, ptr %23) #11
  call void @llvm.lifetime.start.p0(i64 4, ptr %24) #11
  store i32 0, ptr %24, align 4, !tbaa !24
  br label %26

26:                                               ; preds = %93, %11
  %27 = load i32, ptr %24, align 4, !tbaa !24
  %28 = load i32, ptr %14, align 4, !tbaa !24
  %29 = icmp slt i32 %27, %28
  br i1 %29, label %30, label %96

30:                                               ; preds = %26
  store i32 0, ptr %23, align 4, !tbaa !24
  br label %31

31:                                               ; preds = %80, %30
  %32 = load i32, ptr %23, align 4, !tbaa !24
  %33 = load i32, ptr %13, align 4, !tbaa !24
  %34 = icmp slt i32 %32, %33
  br i1 %34, label %35, label %83

35:                                               ; preds = %31
  call void @llvm.lifetime.start.p0(i64 4, ptr %25) #11
  %36 = load ptr, ptr %21, align 8, !tbaa !96
  %37 = load ptr, ptr %15, align 8, !tbaa !29
  %38 = load i32, ptr %23, align 4, !tbaa !24
  %39 = shl i32 %38, 1
  %40 = sext i32 %39 to i64
  %41 = getelementptr inbounds i8, ptr %37, i64 %40
  %42 = load i8, ptr %41, align 1, !tbaa !82
  %43 = zext i8 %42 to i64
  %44 = getelementptr inbounds nuw float, ptr %36, i64 %43
  %45 = load float, ptr %44, align 4, !tbaa !67
  %46 = fptosi float %45 to i32
  store i32 %46, ptr %25, align 4, !tbaa !24
  %47 = load i32, ptr %25, align 4, !tbaa !24
  %48 = icmp sge i32 %47, 0
  br i1 %48, label %49, label %69

49:                                               ; preds = %35
  %50 = load i32, ptr %25, align 4, !tbaa !24
  %51 = load i32, ptr %12, align 4, !tbaa !24
  %52 = icmp sle i32 %50, %51
  br i1 %52, label %53, label %69

53:                                               ; preds = %49
  %54 = load ptr, ptr %16, align 8, !tbaa !29
  %55 = load i32, ptr %23, align 4, !tbaa !24
  %56 = sext i32 %55 to i64
  %57 = getelementptr inbounds i8, ptr %54, i64 %56
  %58 = load i8, ptr %57, align 1, !tbaa !82
  %59 = uitofp i8 %58 to float
  %60 = load i32, ptr %25, align 4, !tbaa !24
  %61 = sitofp i32 %60 to float
  %62 = load float, ptr %22, align 4, !tbaa !67
  %63 = call nsz float @lerpf(float noundef %59, float noundef %61, float noundef %62)
  %64 = fptoui float %63 to i8
  %65 = load ptr, ptr %17, align 8, !tbaa !29
  %66 = load i32, ptr %23, align 4, !tbaa !24
  %67 = sext i32 %66 to i64
  %68 = getelementptr inbounds i8, ptr %65, i64 %67
  store i8 %64, ptr %68, align 1, !tbaa !82
  br label %79

69:                                               ; preds = %49, %35
  %70 = load ptr, ptr %16, align 8, !tbaa !29
  %71 = load i32, ptr %23, align 4, !tbaa !24
  %72 = sext i32 %71 to i64
  %73 = getelementptr inbounds i8, ptr %70, i64 %72
  %74 = load i8, ptr %73, align 1, !tbaa !82
  %75 = load ptr, ptr %17, align 8, !tbaa !29
  %76 = load i32, ptr %23, align 4, !tbaa !24
  %77 = sext i32 %76 to i64
  %78 = getelementptr inbounds i8, ptr %75, i64 %77
  store i8 %74, ptr %78, align 1, !tbaa !82
  br label %79

79:                                               ; preds = %69, %53
  call void @llvm.lifetime.end.p0(i64 4, ptr %25) #11
  br label %80

80:                                               ; preds = %79
  %81 = load i32, ptr %23, align 4, !tbaa !24
  %82 = add nsw i32 %81, 1
  store i32 %82, ptr %23, align 4, !tbaa !24
  br label %31, !llvm.loop !104

83:                                               ; preds = %31
  %84 = load i64, ptr %18, align 8, !tbaa !91
  %85 = load ptr, ptr %15, align 8, !tbaa !29
  %86 = getelementptr inbounds i8, ptr %85, i64 %84
  store ptr %86, ptr %15, align 8, !tbaa !29
  %87 = load i64, ptr %19, align 8, !tbaa !91
  %88 = load ptr, ptr %16, align 8, !tbaa !29
  %89 = getelementptr inbounds i8, ptr %88, i64 %87
  store ptr %89, ptr %16, align 8, !tbaa !29
  %90 = load i64, ptr %20, align 8, !tbaa !91
  %91 = load ptr, ptr %17, align 8, !tbaa !29
  %92 = getelementptr inbounds i8, ptr %91, i64 %90
  store ptr %92, ptr %17, align 8, !tbaa !29
  br label %93

93:                                               ; preds = %83
  %94 = load i32, ptr %24, align 4, !tbaa !24
  %95 = add nsw i32 %94, 1
  store i32 %95, ptr %24, align 4, !tbaa !24
  br label %26, !llvm.loop !105

96:                                               ; preds = %26
  call void @llvm.lifetime.end.p0(i64 4, ptr %24) #11
  call void @llvm.lifetime.end.p0(i64 4, ptr %23) #11
  ret void
}