; Function Attrs: nofree norecurse nosync nounwind memory(argmem: readwrite) uwtable
define internal void @pseudocolor_filter_10(i32 noundef %0, i32 noundef %1, i32 noundef %2, ptr noundef readonly captures(none) %3, ptr noundef readonly captures(none) %4, ptr noundef writeonly captures(none) %5, i64 noundef %6, i64 noundef %7, i64 noundef %8, ptr noundef readonly captures(none) %9, float noundef %10) #8 {
  %12 = icmp sgt i32 %2, 0
  %13 = icmp sgt i32 %1, 0
  %or.cond = and i1 %12, %13
  br i1 %or.cond, label %.preheader.us.preheader, label %._crit_edge37

.preheader.us.preheader:                          ; preds = %11
  %wide.trip.count = zext nneg i32 %1 to i64
  br label %.preheader.us

.preheader.us:                                    ; preds = %.preheader.us.preheader, %._crit_edge.us
  %.036.us = phi ptr [ %34, %._crit_edge.us ], [ %3, %.preheader.us.preheader ]
  %.02735.us = phi i32 [ %37, %._crit_edge.us ], [ 0, %.preheader.us.preheader ]
  %.02934.us = phi ptr [ %35, %._crit_edge.us ], [ %4, %.preheader.us.preheader ]
  %.03033.us = phi ptr [ %36, %._crit_edge.us ], [ %5, %.preheader.us.preheader ]
  br label %14

14:                                               ; preds = %.preheader.us, %32
  %indvars.iv = phi i64 [ 0, %.preheader.us ], [ %indvars.iv.next, %32 ]
  %indvars.iv.tr = trunc i64 %indvars.iv to i32
  %15 = shl i32 %indvars.iv.tr, 1
  %16 = sext i32 %15 to i64
  %17 = getelementptr inbounds i8, ptr %.036.us, i64 %16
  %18 = load i8, ptr %17, align 1, !tbaa !74
  %19 = zext i8 %18 to i64
  %20 = getelementptr inbounds nuw float, ptr %9, i64 %19
  %21 = load float, ptr %20, align 4, !tbaa !62
  %22 = fptosi float %21 to i32
  %23 = icmp slt i32 %22, 0
  %.not.us = icmp slt i32 %0, %22
  %or.cond.us = or i1 %23, %.not.us
  %24 = getelementptr inbounds nuw i8, ptr %.02934.us, i64 %indvars.iv
  %25 = load i8, ptr %24, align 1, !tbaa !74
  br i1 %or.cond.us, label %32, label %26

26:                                               ; preds = %14
  %27 = uitofp i8 %25 to float
  %28 = uitofp nneg i32 %22 to float
  %29 = fsub nsz float %28, %27
  %30 = tail call nsz noundef float @llvm.fmuladd.f32(float %29, float %10, float %27)
  %31 = fptoui float %30 to i8
  br label %32

32:                                               ; preds = %14, %26
  %.sink = phi i8 [ %31, %26 ], [ %25, %14 ]
  %33 = getelementptr inbounds nuw i8, ptr %.03033.us, i64 %indvars.iv
  store i8 %.sink, ptr %33, align 1, !tbaa !74
  %indvars.iv.next = add nuw nsw i64 %indvars.iv, 1
  %exitcond.not = icmp eq i64 %indvars.iv.next, %wide.trip.count
  br i1 %exitcond.not, label %._crit_edge.us, label %14, !llvm.loop !89

._crit_edge.us:                                   ; preds = %32
  %34 = getelementptr inbounds i8, ptr %.036.us, i64 %6
  %35 = getelementptr inbounds i8, ptr %.02934.us, i64 %7
  %36 = getelementptr inbounds i8, ptr %.03033.us, i64 %8
  %37 = add nuw nsw i32 %.02735.us, 1
  %exitcond40.not = icmp eq i32 %37, %2
  br i1 %exitcond40.not, label %._crit_edge37, label %.preheader.us, !llvm.loop !90

._crit_edge37:                                    ; preds = %._crit_edge.us, %11
  ret void
}